Certificate:
    Data:
        Version: 3 (0x2)
        Serial Number: 10911861253475838093 (0x976eb7ff1bc6a88d)
    Signature Algorithm: sha1WithRSAEncryption
        Issuer: C=BE, ST=Oost-Vlaanderen, L=Ghent, O=TASS NV, OU=De bank, CN=192.168.2.150/emailAddress=alexander.zuliani@tass.be
        Validity
            Not Before: Oct  6 11:16:58 2014 GMT
            Not After : Jul  2 11:16:58 2017 GMT
        Subject: C=BE, ST=Oost-Vlaanderen, L=Ghent, O=TASS NV, OU=De bank, CN=192.168.2.150/emailAddress=alexander.zuliani@tass.be
        Subject Public Key Info:
            Public Key Algorithm: rsaEncryption
                Public-Key: (1024 bit)
                Modulus:
                    00:dc:d1:e8:96:16:ba:6a:c1:e7:5a:81:56:43:f0:
                    1c:fc:48:7a:95:b4:af:99:99:52:08:3e:6c:25:d4:
                    33:2d:36:a7:6c:aa:10:57:a0:ec:69:5f:e0:76:dc:
                    90:84:92:de:77:91:bf:bd:0d:79:00:b8:a3:54:53:
                    29:1c:56:3f:c3:40:de:27:50:6d:39:68:de:77:47:
                    01:2d:4a:3a:7b:f7:41:9a:c8:eb:b6:d1:bc:07:74:
                    e5:7e:5f:e5:ba:07:d9:dc:d1:c6:e1:0a:c3:7e:48:
                    f7:c4:9d:7d:89:4b:7f:d8:9f:5e:5f:20:3c:be:1b:
                    ef:ba:14:27:35:eb:db:40:87
                Exponent: 65537 (0x10001)
        X509v3 extensions:
            X509v3 Subject Key Identifier: 
                4A:6C:B0:46:F3:61:56:05:F7:8F:DE:C8:64:11:35:F1:39:DD:7A:5E
            X509v3 Authority Key Identifier: 
                keyid:4A:6C:B0:46:F3:61:56:05:F7:8F:DE:C8:64:11:35:F1:39:DD:7A:5E

            X509v3 Basic Constraints: 
                CA:TRUE
    Signature Algorithm: sha1WithRSAEncryption
         1e:39:f6:1c:5d:cf:31:97:3b:43:9f:f3:07:13:a3:64:0e:ac:
         14:b4:d9:14:df:cb:4d:85:6a:2e:5d:3b:b0:54:7a:80:ac:14:
         36:29:43:07:40:73:0b:12:e3:e8:56:f0:cc:a6:fd:69:9a:49:
         0e:cc:5b:f4:a2:74:bd:59:36:52:23:c9:55:c6:a5:67:5c:ac:
         01:95:8c:7e:62:4c:dc:d7:e2:27:5c:10:0f:37:ce:a6:61:14:
         02:3d:08:c3:ce:25:74:f6:50:25:8b:27:31:1c:2c:bf:00:17:
         73:40:59:a9:48:5d:f7:92:49:cc:e7:39:36:fc:09:41:90:42:
         74:b0
-----BEGIN CERTIFICATE-----
MIIDCjCCAnOgAwIBAgIJAJdut/8bxqiNMA0GCSqGSIb3DQEBBQUAMIGdMQswCQYD
VQQGEwJCRTEYMBYGA1UECAwPT29zdC1WbGFhbmRlcmVuMQ4wDAYDVQQHDAVHaGVu
dDEQMA4GA1UECgwHVEFTUyBOVjEQMA4GA1UECwwHRGUgYmFuazEWMBQGA1UEAwwN
MTkyLjE2OC4yLjE1MDEoMCYGCSqGSIb3DQEJARYZYWxleGFuZGVyLnp1bGlhbmlA
dGFzcy5iZTAeFw0xNDEwMDYxMTE2NThaFw0xNzA3MDIxMTE2NThaMIGdMQswCQYD
VQQGEwJCRTEYMBYGA1UECAwPT29zdC1WbGFhbmRlcmVuMQ4wDAYDVQQHDAVHaGVu
dDEQMA4GA1UECgwHVEFTUyBOVjEQMA4GA1UECwwHRGUgYmFuazEWMBQGA1UEAwwN
MTkyLjE2OC4yLjE1MDEoMCYGCSqGSIb3DQEJARYZYWxleGFuZGVyLnp1bGlhbmlA
dGFzcy5iZTCBnzANBgkqhkiG9w0BAQEFAAOBjQAwgYkCgYEA3NHolha6asHnWoFW
Q/Ac/Eh6lbSvmZlSCD5sJdQzLTanbKoQV6DsaV/gdtyQhJLed5G/vQ15ALijVFMp
HFY/w0DeJ1BtOWjed0cBLUo6e/dBmsjrttG8B3Tlfl/lugfZ3NHG4QrDfkj3xJ19
iUt/2J9eXyA8vhvvuhQnNevbQIcCAwEAAaNQME4wHQYDVR0OBBYEFEpssEbzYVYF
94/eyGQRNfE53XpeMB8GA1UdIwQYMBaAFEpssEbzYVYF94/eyGQRNfE53XpeMAwG
A1UdEwQFMAMBAf8wDQYJKoZIhvcNAQEFBQADgYEAHjn2HF3PMZc7Q5/zBxOjZA6s
FLTZFN/LTYVqLl07sFR6gKwUNilDB0BzCxLj6FbwzKb9aZpJDsxb9KJ0vVk2UiPJ
VcalZ1ysAZWMfmJM3NfiJ1wQDzfOpmEUAj0Iw84ldPZQJYsnMRwsvwAXc0BZqUhd
95JJzOc5NvwJQZBCdLA=
-----END CERTIFICATE-----
